; Function Attrs: mustprogress nounwind uwtable
define void @_ZN5arrow2io16MemoryMappedFileD2Ev(ptr noundef nonnull align 8 dereferenceable(56) %this, ptr noundef %vtt) unnamed_addr #3 align 2 personality ptr @__gxx_personality_v0 {
entry:
  %0 = load ptr, ptr %vtt, align 8
  store ptr %0, ptr %this, align 8
  %1 = getelementptr inbounds i8, ptr %vtt, i64 120
  %2 = load ptr, ptr %1, align 8
  %vbase.offset.ptr = getelementptr i8, ptr %0, i64 -56
  %vbase.offset = load i64, ptr %vbase.offset.ptr, align 8
  %add.ptr = getelementptr inbounds i8, ptr %this, i64 %vbase.offset
  store ptr %2, ptr %add.ptr, align 8
  %3 = getelementptr inbounds i8, ptr %vtt, i64 128
  %4 = load ptr, ptr %3, align 8
  %vtable3 = load ptr, ptr %this, align 8
  %vbase.offset.ptr4 = getelementptr i8, ptr %vtable3, i64 -64
  %vbase.offset5 = load i64, ptr %vbase.offset.ptr4, align 8
  %add.ptr6 = getelementptr inbounds i8, ptr %this, i64 %vbase.offset5
  store ptr %4, ptr %add.ptr6, align 8
  %add.ptr7 = getelementptr inbounds i8, ptr %this, i64 8
  store ptr getelementptr inbounds ({ [29 x ptr], [5 x ptr], [9 x ptr], [5 x ptr], [15 x ptr] }, ptr @_ZTVN5arrow2io16MemoryMappedFileE, i64 0, i32 1, i64 2), ptr %add.ptr7, align 8
  %5 = getelementptr inbounds i8, ptr %vtt, i64 136
  %6 = load ptr, ptr %5, align 8
  %add.ptr8 = getelementptr inbounds i8, ptr %this, i64 24
  store ptr %6, ptr %add.ptr8, align 8
  %add.ptr9 = getelementptr inbounds i8, ptr %this, i64 32
  store ptr getelementptr inbounds ({ [29 x ptr], [5 x ptr], [9 x ptr], [5 x ptr], [15 x ptr] }, ptr @_ZTVN5arrow2io16MemoryMappedFileE, i64 0, i32 3, i64 2), ptr %add.ptr9, align 8
  %vtable10 = load ptr, ptr %this, align 8
  %vbase.offset.ptr11 = getelementptr i8, ptr %vtable10, i64 -56
  %vbase.offset12 = load i64, ptr %vbase.offset.ptr11, align 8
  %add.ptr13 = getelementptr inbounds i8, ptr %this, i64 %vbase.offset12
  invoke void @_ZN5arrow2io8internal19CloseFromDestructorEPNS0_13FileInterfaceE(ptr noundef nonnull %add.ptr13)
          to label %invoke.cont unwind label %terminate.lpad

invoke.cont:                                      ; preds = %entry
  %_M_refcount.i.i = getelementptr inbounds i8, ptr %this, i64 48
  %7 = load ptr, ptr %_M_refcount.i.i, align 8
  %cmp.not.i.i.i = icmp eq ptr %7, null
  br i1 %cmp.not.i.i.i, label %_ZNSt10shared_ptrIN5arrow2io16MemoryMappedFile9MemoryMapEED2Ev.exit, label %if.then.i.i.i

if.then.i.i.i:                                    ; preds = %invoke.cont
  %_M_use_count.i.i.i.i = getelementptr inbounds i8, ptr %7, i64 8
  %8 = load atomic i64, ptr %_M_use_count.i.i.i.i acquire, align 8
  %cmp.i.i.i.i = icmp eq i64 %8, 4294967297
  %9 = trunc i64 %8 to i32
  br i1 %cmp.i.i.i.i, label %if.then.i.i.i.i, label %if.end.i.i.i.i

if.then.i.i.i.i:                                  ; preds = %if.then.i.i.i
  store i32 0, ptr %_M_use_count.i.i.i.i, align 8
  %_M_weak_count.i.i.i.i = getelementptr inbounds i8, ptr %7, i64 12
  store i32 0, ptr %_M_weak_count.i.i.i.i, align 4
  %vtable.i.i.i.i = load ptr, ptr %7, align 8
  %vfn.i.i.i.i = getelementptr inbounds i8, ptr %vtable.i.i.i.i, i64 16
  %10 = load ptr, ptr %vfn.i.i.i.i, align 8
  tail call void %10(ptr noundef nonnull align 8 dereferenceable(16) %7) #22
  br label %if.end8.sink.split.i.i.i.i

if.end.i.i.i.i:                                   ; preds = %if.then.i.i.i
  %11 = load i8, ptr @__libc_single_threaded, align 1
  %tobool.i.not.i.i.i.i = icmp eq i8 %11, 0
  br i1 %tobool.i.not.i.i.i.i, label %if.else.i.i.i.i.i, label %if.then.i.i.i.i.i

if.then.i.i.i.i.i:                                ; preds = %if.end.i.i.i.i
  %add.i.i.i.i.i = add nsw i32 %9, -1
  store i32 %add.i.i.i.i.i, ptr %_M_use_count.i.i.i.i, align 4
  br label %_ZN9__gnu_cxx27__exchange_and_add_dispatchEPii.exit.i.i.i.i

if.else.i.i.i.i.i:                                ; preds = %if.end.i.i.i.i
  %12 = atomicrmw volatile add ptr %_M_use_count.i.i.i.i, i32 -1 acq_rel, align 4
  br label %_ZN9__gnu_cxx27__exchange_and_add_dispatchEPii.exit.i.i.i.i

_ZN9__gnu_cxx27__exchange_and_add_dispatchEPii.exit.i.i.i.i: ; preds = %if.else.i.i.i.i.i, %if.then.i.i.i.i.i
  %retval.i.0.i.i.i.i = phi i32 [ %9, %if.then.i.i.i.i.i ], [ %12, %if.else.i.i.i.i.i ]
  %cmp6.i.i.i.i = icmp eq i32 %retval.i.0.i.i.i.i, 1
  br i1 %cmp6.i.i.i.i, label %if.then7.i.i.i.i, label %_ZNSt10shared_ptrIN5arrow2io16MemoryMappedFile9MemoryMapEED2Ev.exit

if.then7.i.i.i.i:                                 ; preds = %_ZN9__gnu_cxx27__exchange_and_add_dispatchEPii.exit.i.i.i.i
  %vtable.i.i.i.i.i.i = load ptr, ptr %7, align 8
  %vfn.i.i.i.i.i.i = getelementptr inbounds i8, ptr %vtable.i.i.i.i.i.i, i64 16
  %13 = load ptr, ptr %vfn.i.i.i.i.i.i, align 8
  tail call void %13(ptr noundef nonnull align 8 dereferenceable(16) %7) #22
  %_M_weak_count.i.i.i.i.i.i = getelementptr inbounds i8, ptr %7, i64 12
  %14 = load i8, ptr @__libc_single_threaded, align 1
  %tobool.i.not.i.i.i.i.i.i = icmp eq i8 %14, 0
  br i1 %tobool.i.not.i.i.i.i.i.i, label %if.else.i.i.i.i.i.i.i, label %if.then.i.i.i.i.i.i.i

if.then.i.i.i.i.i.i.i:                            ; preds = %if.then7.i.i.i.i
  %15 = load i32, ptr %_M_weak_count.i.i.i.i.i.i, align 4
  %add.i.i.i.i.i.i.i = add nsw i32 %15, -1
  store i32 %add.i.i.i.i.i.i.i, ptr %_M_weak_count.i.i.i.i.i.i, align 4
  br label %_ZN9__gnu_cxx27__exchange_and_add_dispatchEPii.exit.i.i.i.i.i.i

if.else.i.i.i.i.i.i.i:                            ; preds = %if.then7.i.i.i.i
  %16 = atomicrmw volatile add ptr %_M_weak_count.i.i.i.i.i.i, i32 -1 acq_rel, align 4
  br label %_ZN9__gnu_cxx27__exchange_and_add_dispatchEPii.exit.i.i.i.i.i.i

_ZN9__gnu_cxx27__exchange_and_add_dispatchEPii.exit.i.i.i.i.i.i: ; preds = %if.else.i.i.i.i.i.i.i, %if.then.i.i.i.i.i.i.i
  %retval.i.0.i.i.i.i.i.i = phi i32 [ %15, %if.then.i.i.i.i.i.i.i ], [ %16, %if.else.i.i.i.i.i.i.i ]
  %cmp.i.i.i.i.i.i = icmp eq i32 %retval.i.0.i.i.i.i.i.i, 1
  br i1 %cmp.i.i.i.i.i.i, label %if.end8.sink.split.i.i.i.i, label %_ZNSt10shared_ptrIN5arrow2io16MemoryMappedFile9MemoryMapEED2Ev.exit

if.end8.sink.split.i.i.i.i:                       ; preds = %_ZN9__gnu_cxx27__exchange_and_add_dispatchEPii.exit.i.i.i.i.i.i, %if.then.i.i.i.i
  %vtable2.i.i.i.i.i.i = load ptr, ptr %7, align 8
  %vfn3.i.i.i.i.i.i = getelementptr inbounds i8, ptr %vtable2.i.i.i.i.i.i, i64 24
  %17 = load ptr, ptr %vfn3.i.i.i.i.i.i, align 8
  tail call void %17(ptr noundef nonnull align 8 dereferenceable(16) %7) #22
  br label %_ZNSt10shared_ptrIN5arrow2io16MemoryMappedFile9MemoryMapEED2Ev.exit

_ZNSt10shared_ptrIN5arrow2io16MemoryMappedFile9MemoryMapEED2Ev.exit: ; preds = %invoke.cont, %_ZN9__gnu_cxx27__exchange_and_add_dispatchEPii.exit.i.i.i.i, %_ZN9__gnu_cxx27__exchange_and_add_dispatchEPii.exit.i.i.i.i.i.i, %if.end8.sink.split.i.i.i.i
  %18 = getelementptr inbounds i8, ptr %vtt, i64 16
  tail call void @_ZN5arrow2io16RandomAccessFileD2Ev(ptr noundef nonnull align 8 dereferenceable(24) %this, ptr noundef nonnull %18) #22
  ret void

terminate.lpad:                                   ; preds = %entry
  %19 = landingpad { ptr, i32 }
          catch ptr null
  %20 = extractvalue { ptr, i32 } %19, 0
  tail call void @__clang_call_terminate(ptr %20) #25
  unreachable
}